target datalayout = "e-m:e-p270:32:32-p271:32:32-p272:64:64-i64:64-i128:128-f80:128-n8:16:32:64-S128"
target triple = "x86_64-pc-linux-gnu"

%struct.quic_conn_st = type { %struct.quic_obj_st, ptr, ptr, ptr, ptr, ptr, ptr, ptr, ptr, %union.bio_addr_st, %struct.quic_thread_assist_st, i64, i16, i32, i32, i64, i32, i64, i32 }
%struct.quic_obj_st = type { %struct.ssl_st, ptr, ptr, ptr, ptr, ptr, i64, i8 }
%struct.ssl_st = type { i32, ptr, ptr, ptr, %struct.CRYPTO_REF_COUNT, ptr, %struct.crypto_ex_data_st }
%struct.CRYPTO_REF_COUNT = type { i32 }
%struct.crypto_ex_data_st = type { ptr, ptr }
%union.bio_addr_st = type { %struct.sockaddr_in6, [84 x i8] }
%struct.sockaddr_in6 = type { i16, i16, i32, %struct.in6_addr, i32 }
%struct.in6_addr = type { %union.anon }
%union.anon = type { [4 x i32] }
%struct.quic_thread_assist_st = type { ptr, ptr, ptr, i32, i32 }
%struct.qctx_st = type { ptr, ptr, ptr, ptr, ptr, i32, i32, i32, i32 }
%struct.quic_read_again_args = type { ptr, ptr, ptr, i64, ptr, i32 }

@.str = private unnamed_addr constant [32 x i8] c"../openssl/ssl/quic/quic_impl.c\00", align 1
@__func__.quic_read_again = private unnamed_addr constant [16 x i8] c"quic_read_again\00", align 1

; Function Attrs: nounwind uwtable
define internal i32 @quic_mutation_allowed(ptr noundef %0, i32 noundef %1) #0 {
  %3 = alloca i32, align 4
  %4 = alloca ptr, align 8
  %5 = alloca i32, align 4
  store ptr %0, ptr %4, align 8, !tbaa !8
  store i32 %1, ptr %5, align 4, !tbaa !122
  %6 = load ptr, ptr %4, align 8, !tbaa !8
  %7 = getelementptr inbounds nuw %struct.quic_conn_st, ptr %6, i32 0, i32 12
  %8 = load i16, ptr %7, align 8
  %9 = lshr i16 %8, 5
  %10 = and i16 %9, 1
  %11 = zext i16 %10 to i32
  %12 = icmp ne i32 %11, 0
  br i1 %12, label %19, label %13

13:                                               ; preds = %2
  %14 = load ptr, ptr %4, align 8, !tbaa !8
  %15 = getelementptr inbounds nuw %struct.quic_conn_st, ptr %14, i32 0, i32 6
  %16 = load ptr, ptr %15, align 8, !tbaa !106
  %17 = call i32 @ossl_quic_channel_is_term_any(ptr noundef %16)
  %18 = icmp ne i32 %17, 0
  br i1 %18, label %19, label %20

19:                                               ; preds = %13, %2
  store i32 0, ptr %3, align 4
  br label %31

20:                                               ; preds = %13
  %21 = load i32, ptr %5, align 4, !tbaa !122
  %22 = icmp ne i32 %21, 0
  br i1 %22, label %23, label %30

23:                                               ; preds = %20
  %24 = load ptr, ptr %4, align 8, !tbaa !8
  %25 = getelementptr inbounds nuw %struct.quic_conn_st, ptr %24, i32 0, i32 6
  %26 = load ptr, ptr %25, align 8, !tbaa !106
  %27 = call i32 @ossl_quic_channel_is_active(ptr noundef %26)
  %28 = icmp ne i32 %27, 0
  br i1 %28, label %30, label %29

29:                                               ; preds = %23
  store i32 0, ptr %3, align 4
  br label %31

30:                                               ; preds = %23, %20
  store i32 1, ptr %3, align 4
  br label %31

31:                                               ; preds = %30, %29, %19
  %32 = load i32, ptr %3, align 4
  ret i32 %32
}

; Function Attrs: nounwind uwtable
define internal i32 @quic_read_again(ptr noundef %0) #0 {
  %2 = alloca i32, align 4
  %3 = alloca ptr, align 8
  %4 = alloca ptr, align 8
  %5 = alloca i32, align 4
  store ptr %0, ptr %3, align 8, !tbaa !167
  call void @llvm.lifetime.start.p0(i64 8, ptr %4) #10
  %6 = load ptr, ptr %3, align 8, !tbaa !167
  store ptr %6, ptr %4, align 8, !tbaa !317
  %7 = load ptr, ptr %4, align 8, !tbaa !317
  %8 = getelementptr inbounds nuw %struct.quic_read_again_args, ptr %7, i32 0, i32 0
  %9 = load ptr, ptr %8, align 8, !tbaa !223
  %10 = getelementptr inbounds nuw %struct.qctx_st, ptr %9, i32 0, i32 3
  %11 = load ptr, ptr %10, align 8, !tbaa !123
  %12 = call i32 @quic_mutation_allowed(ptr noundef %11, i32 noundef 1)
  %13 = icmp ne i32 %12, 0
  br i1 %13, label %19, label %14

14:                                               ; preds = %1
  %15 = load ptr, ptr %4, align 8, !tbaa !317
  %16 = getelementptr inbounds nuw %struct.quic_read_again_args, ptr %15, i32 0, i32 0
  %17 = load ptr, ptr %16, align 8, !tbaa !223
  %18 = call i32 (ptr, ptr, i32, ptr, i32, ptr, ...) @quic_raise_non_normal_error(ptr noundef %17, ptr noundef @.str, i32 noundef 2951, ptr noundef @__func__.quic_read_again, i32 noundef 207, ptr noundef null)
  store i32 -1, ptr %2, align 4
  store i32 1, ptr %5, align 4
  br label %49

19:                                               ; preds = %1
  %20 = load ptr, ptr %4, align 8, !tbaa !317
  %21 = getelementptr inbounds nuw %struct.quic_read_again_args, ptr %20, i32 0, i32 0
  %22 = load ptr, ptr %21, align 8, !tbaa !223
  %23 = load ptr, ptr %4, align 8, !tbaa !317
  %24 = getelementptr inbounds nuw %struct.quic_read_again_args, ptr %23, i32 0, i32 1
  %25 = load ptr, ptr %24, align 8, !tbaa !225
  %26 = load ptr, ptr %4, align 8, !tbaa !317
  %27 = getelementptr inbounds nuw %struct.quic_read_again_args, ptr %26, i32 0, i32 2
  %28 = load ptr, ptr %27, align 8, !tbaa !226
  %29 = load ptr, ptr %4, align 8, !tbaa !317
  %30 = getelementptr inbounds nuw %struct.quic_read_again_args, ptr %29, i32 0, i32 3
  %31 = load i64, ptr %30, align 8, !tbaa !227
  %32 = load ptr, ptr %4, align 8, !tbaa !317
  %33 = getelementptr inbounds nuw %struct.quic_read_again_args, ptr %32, i32 0, i32 4
  %34 = load ptr, ptr %33, align 8, !tbaa !228
  %35 = load ptr, ptr %4, align 8, !tbaa !317
  %36 = getelementptr inbounds nuw %struct.quic_read_again_args, ptr %35, i32 0, i32 5
  %37 = load i32, ptr %36, align 8, !tbaa !229
  %38 = call i32 @quic_read_actual(ptr noundef %22, ptr noundef %25, ptr noundef %28, i64 noundef %31, ptr noundef %34, i32 noundef %37)
  %39 = icmp ne i32 %38, 0
  br i1 %39, label %41, label %40

40:                                               ; preds = %19
  store i32 -1, ptr %2, align 4
  store i32 1, ptr %5, align 4
  br label %49

41:                                               ; preds = %19
  %42 = load ptr, ptr %4, align 8, !tbaa !317
  %43 = getelementptr inbounds nuw %struct.quic_read_again_args, ptr %42, i32 0, i32 4
  %44 = load ptr, ptr %43, align 8, !tbaa !228
  %45 = load i64, ptr %44, align 8, !tbaa !169
  %46 = icmp ugt i64 %45, 0
  br i1 %46, label %47, label %48

47:                                               ; preds = %41
  store i32 1, ptr %2, align 4
  store i32 1, ptr %5, align 4
  br label %49

48:                                               ; preds = %41
  store i32 0, ptr %2, align 4
  store i32 1, ptr %5, align 4
  br label %49

49:                                               ; preds = %48, %47, %40, %14
  call void @llvm.lifetime.end.p0(i64 8, ptr %4) #10
  %50 = load i32, ptr %2, align 4
  ret i32 %50
}