; Function Attrs: nounwind uwtable
define internal range(i32 -1, 2) i32 @quic_read_again(ptr noundef readonly captures(none) %0) #0 {
  %2 = load ptr, ptr %0, align 8, !tbaa !192
  %3 = getelementptr inbounds nuw i8, ptr %2, i64 24
  %4 = load ptr, ptr %3, align 8, !tbaa !134
  %5 = getelementptr inbounds nuw i8, ptr %4, i64 336
  %6 = load i16, ptr %5, align 8
  %7 = and i16 %6, 32
  %.not.i = icmp eq i16 %7, 0
  br i1 %.not.i, label %8, label %15

8:                                                ; preds = %1
  %9 = getelementptr inbounds nuw i8, ptr %4, i64 160
  %10 = load ptr, ptr %9, align 8, !tbaa !113
  %11 = tail call i32 @ossl_quic_channel_is_term_any(ptr noundef %10) #12
  %.not4.i = icmp eq i32 %11, 0
  br i1 %.not4.i, label %12, label %._crit_edge

._crit_edge:                                      ; preds = %8
  %.pre = load ptr, ptr %0, align 8, !tbaa !192
  br label %15

12:                                               ; preds = %8
  %13 = load ptr, ptr %9, align 8, !tbaa !113
  %14 = tail call i32 @ossl_quic_channel_is_active(ptr noundef %13) #12
  %.not6.i = icmp eq i32 %14, 0
  %.pre14 = load ptr, ptr %0, align 8, !tbaa !192
  br i1 %.not6.i, label %15, label %quic_mutation_allowed.exit

15:                                               ; preds = %._crit_edge, %1, %12
  %16 = phi ptr [ %.pre, %._crit_edge ], [ %2, %1 ], [ %.pre14, %12 ]
  tail call void (ptr, ptr, i32, ptr, i32, ptr, ...) @quic_raise_non_normal_error(ptr noundef %16, ptr nonnull poison, i32 noundef 2951, ptr noundef nonnull @__func__.quic_read_again, i32 noundef 207, ptr noundef null)
  br label %31

quic_mutation_allowed.exit:                       ; preds = %12
  %17 = getelementptr inbounds nuw i8, ptr %0, i64 8
  %18 = load ptr, ptr %17, align 8, !tbaa !195
  %19 = getelementptr inbounds nuw i8, ptr %0, i64 16
  %20 = load ptr, ptr %19, align 8, !tbaa !196
  %21 = getelementptr inbounds nuw i8, ptr %0, i64 24
  %22 = load i64, ptr %21, align 8, !tbaa !197
  %23 = getelementptr inbounds nuw i8, ptr %0, i64 32
  %24 = load ptr, ptr %23, align 8, !tbaa !198
  %25 = getelementptr inbounds nuw i8, ptr %0, i64 40
  %26 = load i32, ptr %25, align 8, !tbaa !199
  %27 = tail call fastcc i32 @quic_read_actual(ptr noundef %.pre14, ptr noundef %18, ptr noundef %20, i64 noundef %22, ptr noundef %24, i32 noundef %26)
  %.not10 = icmp eq i32 %27, 0
  br i1 %.not10, label %31, label %28

28:                                               ; preds = %quic_mutation_allowed.exit
  %29 = load ptr, ptr %23, align 8, !tbaa !198
  %30 = load i64, ptr %29, align 8, !tbaa !160
  %.not11 = icmp ne i64 %30, 0
  %. = zext i1 %.not11 to i32
  br label %31

31:                                               ; preds = %28, %quic_mutation_allowed.exit, %15
  %.0 = phi i32 [ -1, %15 ], [ -1, %quic_mutation_allowed.exit ], [ %., %28 ]
  ret i32 %.0
}